target datalayout = "e-m:e-p270:32:32-p271:32:32-p272:64:64-i64:64-i128:128-f80:128-n8:16:32:64-S128"
target triple = "x86_64-pc-linux-gnu"

%"class.ZXing::PerspectiveTransform" = type { double, double, double, double, double, double, double, double, double }
%"struct.ZXing::PointT" = type { double, double }

; Function Attrs: mustprogress nounwind uwtable
define linkonce_odr void @_ZN5ZXing6PointTIdEC2Edd(ptr noundef nonnull align 8 dereferenceable(16) %0, double noundef %1, double noundef %2) unnamed_addr #2 comdat align 2 {
  %4 = alloca ptr, align 8
  %5 = alloca double, align 8
  %6 = alloca double, align 8
  store ptr %0, ptr %4, align 8, !tbaa !29
  store double %1, ptr %5, align 8, !tbaa !19
  store double %2, ptr %6, align 8, !tbaa !19
  %7 = load ptr, ptr %4, align 8
  %8 = getelementptr inbounds nuw %"struct.ZXing::PointT", ptr %7, i32 0, i32 0
  %9 = load double, ptr %5, align 8, !tbaa !19
  store double %9, ptr %8, align 8, !tbaa !31
  %10 = getelementptr inbounds nuw %"struct.ZXing::PointT", ptr %7, i32 0, i32 1
  %11 = load double, ptr %6, align 8, !tbaa !19
  store double %11, ptr %10, align 8, !tbaa !33
  ret void
}

; Function Attrs: mustprogress uwtable
define { double, double } @_ZNK5ZXing20PerspectiveTransformclENS_6PointTIdEE(ptr noundef nonnull align 8 dereferenceable(72) %0, double %1, double %2) #0 align 2 {
  %4 = alloca %"struct.ZXing::PointT", align 8
  %5 = alloca %"struct.ZXing::PointT", align 8
  %6 = alloca ptr, align 8
  %7 = alloca double, align 8
  %8 = getelementptr inbounds nuw { double, double }, ptr %5, i32 0, i32 0
  store double %1, ptr %8, align 8
  %9 = getelementptr inbounds nuw { double, double }, ptr %5, i32 0, i32 1
  store double %2, ptr %9, align 8
  store ptr %0, ptr %6, align 8, !tbaa !3
  %10 = load ptr, ptr %6, align 8
  call void @llvm.lifetime.start.p0(i64 8, ptr %7) #7
  %11 = getelementptr inbounds nuw %"class.ZXing::PerspectiveTransform", ptr %10, i32 0, i32 2
  %12 = load double, ptr %11, align 8, !tbaa !16
  %13 = getelementptr inbounds nuw %"struct.ZXing::PointT", ptr %5, i32 0, i32 0
  %14 = load double, ptr %13, align 8, !tbaa !31
  %15 = getelementptr inbounds nuw %"class.ZXing::PerspectiveTransform", ptr %10, i32 0, i32 5
  %16 = load double, ptr %15, align 8, !tbaa !12
  %17 = getelementptr inbounds nuw %"struct.ZXing::PointT", ptr %5, i32 0, i32 1
  %18 = load double, ptr %17, align 8, !tbaa !33
  %19 = fmul double %16, %18
  %20 = call double @llvm.fmuladd.f64(double %12, double %14, double %19)
  %21 = getelementptr inbounds nuw %"class.ZXing::PerspectiveTransform", ptr %10, i32 0, i32 8
  %22 = load double, ptr %21, align 8, !tbaa !11
  %23 = fadd double %20, %22
  store double %23, ptr %7, align 8, !tbaa !19
  %24 = getelementptr inbounds nuw %"class.ZXing::PerspectiveTransform", ptr %10, i32 0, i32 0
  %25 = load double, ptr %24, align 8, !tbaa !18
  %26 = getelementptr inbounds nuw %"struct.ZXing::PointT", ptr %5, i32 0, i32 0
  %27 = load double, ptr %26, align 8, !tbaa !31
  %28 = getelementptr inbounds nuw %"class.ZXing::PerspectiveTransform", ptr %10, i32 0, i32 3
  %29 = load double, ptr %28, align 8, !tbaa !15
  %30 = getelementptr inbounds nuw %"struct.ZXing::PointT", ptr %5, i32 0, i32 1
  %31 = load double, ptr %30, align 8, !tbaa !33
  %32 = fmul double %29, %31
  %33 = call double @llvm.fmuladd.f64(double %25, double %27, double %32)
  %34 = getelementptr inbounds nuw %"class.ZXing::PerspectiveTransform", ptr %10, i32 0, i32 6
  %35 = load double, ptr %34, align 8, !tbaa !14
  %36 = fadd double %33, %35
  %37 = load double, ptr %7, align 8, !tbaa !19
  %38 = fdiv double %36, %37
  %39 = getelementptr inbounds nuw %"class.ZXing::PerspectiveTransform", ptr %10, i32 0, i32 1
  %40 = load double, ptr %39, align 8, !tbaa !17
  %41 = getelementptr inbounds nuw %"struct.ZXing::PointT", ptr %5, i32 0, i32 0
  %42 = load double, ptr %41, align 8, !tbaa !31
  %43 = getelementptr inbounds nuw %"class.ZXing::PerspectiveTransform", ptr %10, i32 0, i32 4
  %44 = load double, ptr %43, align 8, !tbaa !8
  %45 = getelementptr inbounds nuw %"struct.ZXing::PointT", ptr %5, i32 0, i32 1
  %46 = load double, ptr %45, align 8, !tbaa !33
  %47 = fmul double %44, %46
  %48 = call double @llvm.fmuladd.f64(double %40, double %42, double %47)
  %49 = getelementptr inbounds nuw %"class.ZXing::PerspectiveTransform", ptr %10, i32 0, i32 7
  %50 = load double, ptr %49, align 8, !tbaa !13
  %51 = fadd double %48, %50
  %52 = load double, ptr %7, align 8, !tbaa !19
  %53 = fdiv double %51, %52
  call void @_ZN5ZXing6PointTIdEC2Edd(ptr noundef nonnull align 8 dereferenceable(16) %4, double noundef %38, double noundef %53)
  call void @llvm.lifetime.end.p0(i64 8, ptr %7) #7
  %54 = load { double, double }, ptr %4, align 8
  ret { double, double } %54
}