; Function Attrs: mustprogress nofree norecurse nosync nounwind willreturn memory(argmem: read) uwtable
define { double, double } @_ZNK5ZXing20PerspectiveTransformclENS_6PointTIdEE(ptr noundef nonnull readonly align 8 captures(none) dereferenceable(72) %0, double %1, double %2) local_unnamed_addr #3 align 2 {
  %4 = getelementptr inbounds nuw i8, ptr %0, i64 16
  %5 = load double, ptr %4, align 8, !tbaa !13
  %6 = getelementptr inbounds nuw i8, ptr %0, i64 40
  %7 = load double, ptr %6, align 8, !tbaa !9
  %8 = fmul double %2, %7
  %9 = tail call double @llvm.fmuladd.f64(double %5, double %1, double %8)
  %10 = getelementptr inbounds nuw i8, ptr %0, i64 64
  %11 = load double, ptr %10, align 8, !tbaa !8
  %12 = fadd double %11, %9
  %13 = load double, ptr %0, align 8, !tbaa !15
  %14 = getelementptr inbounds nuw i8, ptr %0, i64 24
  %15 = load double, ptr %14, align 8, !tbaa !12
  %16 = fmul double %2, %15
  %17 = tail call double @llvm.fmuladd.f64(double %13, double %1, double %16)
  %18 = getelementptr inbounds nuw i8, ptr %0, i64 48
  %19 = load double, ptr %18, align 8, !tbaa !11
  %20 = fadd double %19, %17
  %21 = fdiv double %20, %12
  %22 = getelementptr inbounds nuw i8, ptr %0, i64 8
  %23 = load double, ptr %22, align 8, !tbaa !14
  %24 = getelementptr inbounds nuw i8, ptr %0, i64 32
  %25 = load double, ptr %24, align 8, !tbaa !3
  %26 = fmul double %2, %25
  %27 = tail call double @llvm.fmuladd.f64(double %23, double %1, double %26)
  %28 = getelementptr inbounds nuw i8, ptr %0, i64 56
  %29 = load double, ptr %28, align 8, !tbaa !10
  %30 = fadd double %29, %27
  %31 = fdiv double %30, %12
  %.fca.0.insert = insertvalue { double, double } poison, double %21, 0
  %.fca.1.insert = insertvalue { double, double } %.fca.0.insert, double %31, 1
  ret { double, double } %.fca.1.insert
}